target datalayout = "e-m:e-p270:32:32-p271:32:32-p272:64:64-i64:64-i128:128-f80:128-n8:16:32:64-S128"
target triple = "x86_64-unknown-linux-gnu"

%struct.QTailQLink = type { ptr, ptr }
%struct.MemoryListener = type { ptr, ptr, ptr, ptr, ptr, ptr, ptr, ptr, ptr, ptr, ptr, ptr, ptr, ptr, ptr, ptr, ptr, i32, ptr, ptr, %union.anon.1, %union.anon.2 }
%union.anon.1 = type { %struct.QTailQLink }
%union.anon.2 = type { %struct.QTailQLink }
%struct.Object = type { ptr, ptr, ptr, i32, ptr }
%struct.Notifier = type { ptr, %struct.anon.7 }
%struct.anon.7 = type { ptr, ptr }
%struct.DeviceState = type { %struct.Object, ptr, ptr, i8, i8, i64, ptr, i32, i8, ptr, %struct.NamedGPIOListHead, %struct.NamedClockListHead, %struct.BusStateHead, i32, i32, i32, %struct.ResettableState, ptr, %struct.MemReentrancyGuard }
%struct.NamedGPIOListHead = type { ptr }
%struct.NamedClockListHead = type { ptr }
%struct.BusStateHead = type { ptr }
%struct.ResettableState = type { i32, i8, i8 }
%struct.MemReentrancyGuard = type { i8 }
%struct.VirtIONet = type { %struct.VirtIODevice, [6 x i8], i16, ptr, ptr, ptr, %union.anon.14, i32, i32, i32, i64, i64, i64, i32, i8, i8, i8, i32, i8, i8, i8, i8, i8, i8, i8, %struct.anon.15, ptr, %struct.virtio_net_conf, %struct.NICConf, ptr, i32, i16, i16, i16, i64, ptr, ptr, i64, i64, %struct.AnnounceTimer, i8, i8, i8, i8, %struct.DeviceListener, ptr, i8, %struct.Notifier, %struct.VirtioNetRssData, ptr, %struct.EBPFRSSContext }
%struct.VirtIODevice = type { %struct.DeviceState, ptr, i8, i8, i16, i64, i64, i64, i64, ptr, i16, i32, i32, ptr, %struct.MemoryListener, i16, i8, i8, i8, i8, i8, i8, i8, i8, i8, ptr, ptr, i8, i8, ptr, ptr, %union.anon.13, %struct.EventNotifier, i8 }
%union.anon.13 = type { %struct.QTailQLink }
%struct.EventNotifier = type { i32, i32, i8 }
%union.anon.14 = type { %struct.QTailQLink }
%struct.anon.15 = type { i32, i32, i8, i8, ptr }
%struct.virtio_net_conf = type { i32, i32, ptr, i16, i16, i16, i32, ptr, i8, ptr }
%struct.NICConf = type { %struct.MACAddr, %struct.NICPeers, i32 }
%struct.MACAddr = type { [6 x i8] }
%struct.NICPeers = type { [1024 x ptr], i32 }
%struct.AnnounceTimer = type { ptr, %struct.AnnounceParameters, i32, i32 }
%struct.AnnounceParameters = type { i64, i64, i64, i64, i8, ptr, ptr }
%struct.DeviceListener = type { ptr, ptr, ptr, %union.anon.16 }
%union.anon.16 = type { %struct.QTailQLink }
%struct.VirtioNetRssData = type { i8, i8, i8, i8, i32, [40 x i8], i16, ptr, i16 }
%struct.EBPFRSSContext = type { ptr, i32, i32, i32, i32 }
%struct.iovec = type { ptr, i64 }

@.str.15 = private unnamed_addr constant [10 x i8] c"fbit < 64\00", align 1
@.str.16 = private unnamed_addr constant [105 x i8] c"/home/dtcxzyw/WorkSpace/Projects/compilers/llvm-opt-benchmark/bench/qemu/qemu/include/hw/virtio/virtio.h\00", align 1
@__PRETTY_FUNCTION__.virtio_has_feature = private unnamed_addr constant [49 x i8] c"_Bool virtio_has_feature(uint64_t, unsigned int)\00", align 1

; Function Attrs: nounwind sspstrong uwtable
define internal zeroext i1 @virtio_has_feature(i64 noundef %features, i32 noundef %fbit) #0 {
entry:
  %features.addr = alloca i64, align 8
  %fbit.addr = alloca i32, align 4
  store i64 %features, ptr %features.addr, align 8
  store i32 %fbit, ptr %fbit.addr, align 4
  %0 = load i32, ptr %fbit.addr, align 4
  %cmp = icmp ult i32 %0, 64
  br i1 %cmp, label %if.then, label %if.else

if.then:                                          ; preds = %entry
  br label %if.end

if.else:                                          ; preds = %entry
  call void @__assert_fail(ptr noundef @.str.15, ptr noundef @.str.16, i32 noundef 422, ptr noundef @__PRETTY_FUNCTION__.virtio_has_feature) #10
  unreachable

if.end:                                           ; preds = %if.then
  %1 = load i64, ptr %features.addr, align 8
  %2 = load i32, ptr %fbit.addr, align 4
  %sh_prom = zext i32 %2 to i64
  %shl = shl i64 1, %sh_prom
  %and = and i64 %1, %shl
  %tobool = icmp ne i64 %and, 0
  %lnot = xor i1 %tobool, true
  %lnot1 = xor i1 %lnot, true
  ret i1 %lnot1
}

; Function Attrs: nounwind sspstrong uwtable
define internal i32 @vhost_vdpa_net_load_single_vlan(ptr noundef %s, ptr noundef %n, ptr noundef %out_cursor, ptr noundef %in_cursor, i16 noundef zeroext %vid) #0 {
entry:
  %retval = alloca i32, align 4
  %s.addr = alloca ptr, align 8
  %n.addr = alloca ptr, align 8
  %out_cursor.addr = alloca ptr, align 8
  %in_cursor.addr = alloca ptr, align 8
  %vid.addr = alloca i16, align 2
  %data = alloca %struct.iovec, align 8
  %r = alloca i64, align 8
  store ptr %s, ptr %s.addr, align 8
  store ptr %n, ptr %n.addr, align 8
  store ptr %out_cursor, ptr %out_cursor.addr, align 8
  store ptr %in_cursor, ptr %in_cursor.addr, align 8
  store i16 %vid, ptr %vid.addr, align 2
  %iov_base = getelementptr inbounds %struct.iovec, ptr %data, i32 0, i32 0
  store ptr %vid.addr, ptr %iov_base, align 8
  %iov_len = getelementptr inbounds %struct.iovec, ptr %data, i32 0, i32 1
  store i64 2, ptr %iov_len, align 8
  %0 = load ptr, ptr %s.addr, align 8
  %1 = load ptr, ptr %out_cursor.addr, align 8
  %2 = load ptr, ptr %in_cursor.addr, align 8
  %call = call i64 @vhost_vdpa_net_load_cmd(ptr noundef %0, ptr noundef %1, ptr noundef %2, i8 noundef zeroext 2, i8 noundef zeroext 0, ptr noundef %data, i64 noundef 1)
  store i64 %call, ptr %r, align 8
  %3 = load i64, ptr %r, align 8
  %cmp = icmp slt i64 %3, 0
  %lnot = xor i1 %cmp, true
  %lnot1 = xor i1 %lnot, true
  %lnot.ext = zext i1 %lnot1 to i32
  %conv = sext i32 %lnot.ext to i64
  %tobool = icmp ne i64 %conv, 0
  br i1 %tobool, label %if.then, label %if.end

if.then:                                          ; preds = %entry
  %4 = load i64, ptr %r, align 8
  %conv2 = trunc i64 %4 to i32
  store i32 %conv2, ptr %retval, align 4
  br label %return

if.end:                                           ; preds = %entry
  store i32 0, ptr %retval, align 4
  br label %return

return:                                           ; preds = %if.end, %if.then
  %5 = load i32, ptr %retval, align 4
  ret i32 %5
}

; Function Attrs: nounwind sspstrong uwtable
define internal zeroext i1 @virtio_vdev_has_feature(ptr noundef %vdev, i32 noundef %fbit) #0 {
entry:
  %vdev.addr = alloca ptr, align 8
  %fbit.addr = alloca i32, align 4
  store ptr %vdev, ptr %vdev.addr, align 8
  store i32 %fbit, ptr %fbit.addr, align 4
  %0 = load ptr, ptr %vdev.addr, align 8
  %guest_features = getelementptr inbounds %struct.VirtIODevice, ptr %0, i32 0, i32 6
  %1 = load i64, ptr %guest_features, align 8
  %2 = load i32, ptr %fbit.addr, align 4
  %call = call zeroext i1 @virtio_has_feature(i64 noundef %1, i32 noundef %2)
  ret i1 %call
}

; Function Attrs: nounwind sspstrong uwtable
define internal i32 @vhost_vdpa_net_load_vlan(ptr noundef %s, ptr noundef %n, ptr noundef %out_cursor, ptr noundef %in_cursor) #0 {
entry:
  %retval = alloca i32, align 4
  %s.addr = alloca ptr, align 8
  %n.addr = alloca ptr, align 8
  %out_cursor.addr = alloca ptr, align 8
  %in_cursor.addr = alloca ptr, align 8
  %r = alloca i32, align 4
  %i = alloca i32, align 4
  %j = alloca i32, align 4
  store ptr %s, ptr %s.addr, align 8
  store ptr %n, ptr %n.addr, align 8
  store ptr %out_cursor, ptr %out_cursor.addr, align 8
  store ptr %in_cursor, ptr %in_cursor.addr, align 8
  %0 = load ptr, ptr %n.addr, align 8
  %parent_obj = getelementptr inbounds %struct.VirtIONet, ptr %0, i32 0, i32 0
  %call = call zeroext i1 @virtio_vdev_has_feature(ptr noundef %parent_obj, i32 noundef 19)
  br i1 %call, label %if.end, label %if.then

if.then:                                          ; preds = %entry
  store i32 0, ptr %retval, align 4
  br label %return

if.end:                                           ; preds = %entry
  store i32 0, ptr %i, align 4
  br label %for.cond

for.cond:                                         ; preds = %for.inc19, %if.end
  %1 = load i32, ptr %i, align 4
  %cmp = icmp slt i32 %1, 128
  br i1 %cmp, label %for.body, label %for.end21

for.body:                                         ; preds = %for.cond
  store i32 0, ptr %j, align 4
  br label %for.cond1

for.cond1:                                        ; preds = %for.inc, %for.body
  %2 = load ptr, ptr %n.addr, align 8
  %vlans = getelementptr inbounds %struct.VirtIONet, ptr %2, i32 0, i32 26
  %3 = load ptr, ptr %vlans, align 8
  %4 = load i32, ptr %i, align 4
  %idxprom = sext i32 %4 to i64
  %arrayidx = getelementptr i32, ptr %3, i64 %idxprom
  %5 = load i32, ptr %arrayidx, align 4
  %tobool = icmp ne i32 %5, 0
  br i1 %tobool, label %land.rhs, label %land.end

land.rhs:                                         ; preds = %for.cond1
  %6 = load i32, ptr %j, align 4
  %cmp2 = icmp sle i32 %6, 31
  br label %land.end

land.end:                                         ; preds = %land.rhs, %for.cond1
  %7 = phi i1 [ false, %for.cond1 ], [ %cmp2, %land.rhs ]
  br i1 %7, label %for.body3, label %for.end

for.body3:                                        ; preds = %land.end
  %8 = load ptr, ptr %n.addr, align 8
  %vlans4 = getelementptr inbounds %struct.VirtIONet, ptr %8, i32 0, i32 26
  %9 = load ptr, ptr %vlans4, align 8
  %10 = load i32, ptr %i, align 4
  %idxprom5 = sext i32 %10 to i64
  %arrayidx6 = getelementptr i32, ptr %9, i64 %idxprom5
  %11 = load i32, ptr %arrayidx6, align 4
  %12 = load i32, ptr %j, align 4
  %shl = shl i32 1, %12
  %and = and i32 %11, %shl
  %tobool7 = icmp ne i32 %and, 0
  br i1 %tobool7, label %if.then8, label %if.end18

if.then8:                                         ; preds = %for.body3
  %13 = load ptr, ptr %s.addr, align 8
  %14 = load ptr, ptr %n.addr, align 8
  %15 = load ptr, ptr %out_cursor.addr, align 8
  %16 = load ptr, ptr %in_cursor.addr, align 8
  %17 = load i32, ptr %i, align 4
  %shl9 = shl i32 %17, 5
  %18 = load i32, ptr %j, align 4
  %add = add i32 %shl9, %18
  %conv = trunc i32 %add to i16
  %call10 = call i32 @vhost_vdpa_net_load_single_vlan(ptr noundef %13, ptr noundef %14, ptr noundef %15, ptr noundef %16, i16 noundef zeroext %conv)
  store i32 %call10, ptr %r, align 4
  %19 = load i32, ptr %r, align 4
  %cmp11 = icmp ne i32 %19, 0
  %lnot = xor i1 %cmp11, true
  %lnot13 = xor i1 %lnot, true
  %lnot.ext = zext i1 %lnot13 to i32
  %conv14 = sext i32 %lnot.ext to i64
  %tobool15 = icmp ne i64 %conv14, 0
  br i1 %tobool15, label %if.then16, label %if.end17

if.then16:                                        ; preds = %if.then8
  %20 = load i32, ptr %r, align 4
  store i32 %20, ptr %retval, align 4
  br label %return

if.end17:                                         ; preds = %if.then8
  br label %if.end18

if.end18:                                         ; preds = %if.end17, %for.body3
  br label %for.inc

for.inc:                                          ; preds = %if.end18
  %21 = load i32, ptr %j, align 4
  %inc = add i32 %21, 1
  store i32 %inc, ptr %j, align 4
  br label %for.cond1, !llvm.loop !11

for.end:                                          ; preds = %land.end
  br label %for.inc19

for.inc19:                                        ; preds = %for.end
  %22 = load i32, ptr %i, align 4
  %inc20 = add i32 %22, 1
  store i32 %inc20, ptr %i, align 4
  br label %for.cond, !llvm.loop !12

for.end21:                                        ; preds = %for.cond
  store i32 0, ptr %retval, align 4
  br label %return

return:                                           ; preds = %for.end21, %if.then16, %if.then
  %23 = load i32, ptr %retval, align 4
  ret i32 %23
}