; Function Attrs: nounwind sspstrong uwtable
define internal fastcc range(i32 -2147483648, 1) i32 @vhost_vdpa_net_load_vlan(ptr noundef readonly captures(none) %s, ptr noundef readonly captures(none) %n, ptr noundef nonnull %out_cursor, ptr noundef nonnull %in_cursor) unnamed_addr #0 {
entry:
  %vid.addr.i = alloca i16, align 2
  %data.i = alloca %struct.iovec, align 8
  %0 = getelementptr i8, ptr %n, i64 184
  %n.val = load i64, ptr %0, align 8
  %and.i.i = and i64 %n.val, 524288
  %tobool.i.i.not = icmp eq i64 %and.i.i, 0
  br i1 %tobool.i.i.not, label %return, label %for.cond.preheader

for.cond.preheader:                               ; preds = %entry
  %vlans = getelementptr inbounds nuw i8, ptr %n, i64 656
  %iov_len.i = getelementptr inbounds nuw i8, ptr %data.i, i64 8
  %.pre = load ptr, ptr %vlans, align 8
  br label %for.cond1.preheader

for.cond1.preheader:                              ; preds = %for.cond.preheader, %for.inc19
  %1 = phi ptr [ %.pre, %for.cond.preheader ], [ %10, %for.inc19 ]
  %2 = phi ptr [ %.pre, %for.cond.preheader ], [ %11, %for.inc19 ]
  %indvars.iv = phi i64 [ 0, %for.cond.preheader ], [ %indvars.iv.next, %for.inc19 ]
  %arrayidx13 = getelementptr i32, ptr %2, i64 %indvars.iv
  %3 = load i32, ptr %arrayidx13, align 4
  %tobool14.not = icmp eq i32 %3, 0
  br i1 %tobool14.not, label %for.inc19, label %for.body3.lr.ph

for.body3.lr.ph:                                  ; preds = %for.cond1.preheader
  %indvars.iv.tr = trunc i64 %indvars.iv to i32
  %4 = shl i32 %indvars.iv.tr, 5
  br label %for.body3

for.body3:                                        ; preds = %for.body3.lr.ph, %for.inc
  %5 = phi ptr [ %1, %for.body3.lr.ph ], [ %7, %for.inc ]
  %6 = phi i32 [ %3, %for.body3.lr.ph ], [ %8, %for.inc ]
  %j.015 = phi i32 [ 0, %for.body3.lr.ph ], [ %inc, %for.inc ]
  %shl = shl nuw i32 1, %j.015
  %and = and i32 %6, %shl
  %tobool7.not = icmp eq i32 %and, 0
  br i1 %tobool7.not, label %for.inc, label %if.then8

if.then8:                                         ; preds = %for.body3
  %add = add nuw nsw i32 %j.015, %4
  %conv = trunc nuw i32 %add to i16
  call void @llvm.lifetime.start.p0(i64 2, ptr nonnull %vid.addr.i)
  call void @llvm.lifetime.start.p0(i64 16, ptr nonnull %data.i)
  store i16 %conv, ptr %vid.addr.i, align 2
  store ptr %vid.addr.i, ptr %data.i, align 8
  store i64 2, ptr %iov_len.i, align 8
  %call.i = call fastcc i64 @vhost_vdpa_net_load_cmd(ptr noundef readonly %s, ptr noundef nonnull %out_cursor, ptr noundef nonnull %in_cursor, i8 noundef zeroext 2, i8 noundef zeroext 0, ptr noundef %data.i, i64 noundef 1)
  call void @llvm.lifetime.end.p0(i64 2, ptr nonnull %vid.addr.i)
  call void @llvm.lifetime.end.p0(i64 16, ptr nonnull %data.i)
  %cmp11.not = icmp eq i64 %call.i, 0
  br i1 %cmp11.not, label %if.then8.for.inc_crit_edge, label %return.loopexit

if.then8.for.inc_crit_edge:                       ; preds = %if.then8
  %.pre20 = load ptr, ptr %vlans, align 8
  br label %for.inc

for.inc:                                          ; preds = %if.then8.for.inc_crit_edge, %for.body3
  %7 = phi ptr [ %.pre20, %if.then8.for.inc_crit_edge ], [ %5, %for.body3 ]
  %inc = add nuw nsw i32 %j.015, 1
  %arrayidx = getelementptr i32, ptr %7, i64 %indvars.iv
  %8 = load i32, ptr %arrayidx, align 4
  %tobool = icmp ne i32 %8, 0
  %cmp2 = icmp samesign ult i32 %j.015, 31
  %9 = select i1 %tobool, i1 %cmp2, i1 false
  br i1 %9, label %for.body3, label %for.inc19, !llvm.loop !12

for.inc19:                                        ; preds = %for.inc, %for.cond1.preheader
  %10 = phi ptr [ %1, %for.cond1.preheader ], [ %7, %for.inc ]
  %11 = phi ptr [ %2, %for.cond1.preheader ], [ %7, %for.inc ]
  %indvars.iv.next = add nuw nsw i64 %indvars.iv, 1
  %exitcond.not = icmp eq i64 %indvars.iv.next, 128
  br i1 %exitcond.not, label %return, label %for.cond1.preheader, !llvm.loop !13

return.loopexit:                                  ; preds = %if.then8
  %retval.0.i.le = trunc nsw i64 %call.i to i32
  br label %return

return:                                           ; preds = %for.inc19, %return.loopexit, %entry
  %retval.0 = phi i32 [ 0, %entry ], [ %retval.0.i.le, %return.loopexit ], [ 0, %for.inc19 ]
  ret i32 %retval.0
}